target datalayout = "e-m:e-p270:32:32-p271:32:32-p272:64:64-i64:64-i128:128-f80:128-n8:16:32:64-S128"
target triple = "x86_64-pc-linux-gnu"

%struct.lua_TValue = type { %union.Value, i32 }
%union.Value = type { ptr }
%struct.lua_State = type { ptr, i8, i8, i8, ptr, ptr, ptr, ptr, ptr, ptr, ptr, ptr, ptr, i32, i32, i16, i16, i8, i8, i32, i32, ptr, %struct.lua_TValue, %struct.lua_TValue, ptr, ptr, ptr, i64 }

; Function Attrs: nounwind uwtable
define dso_local void @lua_settop(ptr noundef %0, i32 noundef %1) #0 {
  %3 = alloca ptr, align 8
  %4 = alloca i32, align 4
  store ptr %0, ptr %3, align 8, !tbaa !4
  store i32 %1, ptr %4, align 4, !tbaa !25
  %5 = load i32, ptr %4, align 4, !tbaa !25
  %6 = icmp sge i32 %5, 0
  br i1 %6, label %7, label %34

7:                                                ; preds = %2
  br label %8

8:                                                ; preds = %19, %7
  %9 = load ptr, ptr %3, align 8, !tbaa !4
  %10 = getelementptr inbounds nuw %struct.lua_State, ptr %9, i32 0, i32 4
  %11 = load ptr, ptr %10, align 8, !tbaa !11
  %12 = load ptr, ptr %3, align 8, !tbaa !4
  %13 = getelementptr inbounds nuw %struct.lua_State, ptr %12, i32 0, i32 5
  %14 = load ptr, ptr %13, align 8, !tbaa !26
  %15 = load i32, ptr %4, align 4, !tbaa !25
  %16 = sext i32 %15 to i64
  %17 = getelementptr inbounds %struct.lua_TValue, ptr %14, i64 %16
  %18 = icmp ult ptr %11, %17
  br i1 %18, label %19, label %25

19:                                               ; preds = %8
  %20 = load ptr, ptr %3, align 8, !tbaa !4
  %21 = getelementptr inbounds nuw %struct.lua_State, ptr %20, i32 0, i32 4
  %22 = load ptr, ptr %21, align 8, !tbaa !11
  %23 = getelementptr inbounds nuw %struct.lua_TValue, ptr %22, i32 1
  store ptr %23, ptr %21, align 8, !tbaa !11
  %24 = getelementptr inbounds nuw %struct.lua_TValue, ptr %22, i32 0, i32 1
  store i32 0, ptr %24, align 8, !tbaa !24
  br label %8, !llvm.loop !45

25:                                               ; preds = %8
  %26 = load ptr, ptr %3, align 8, !tbaa !4
  %27 = getelementptr inbounds nuw %struct.lua_State, ptr %26, i32 0, i32 5
  %28 = load ptr, ptr %27, align 8, !tbaa !26
  %29 = load i32, ptr %4, align 4, !tbaa !25
  %30 = sext i32 %29 to i64
  %31 = getelementptr inbounds %struct.lua_TValue, ptr %28, i64 %30
  %32 = load ptr, ptr %3, align 8, !tbaa !4
  %33 = getelementptr inbounds nuw %struct.lua_State, ptr %32, i32 0, i32 4
  store ptr %31, ptr %33, align 8, !tbaa !11
  br label %42

34:                                               ; preds = %2
  %35 = load i32, ptr %4, align 4, !tbaa !25
  %36 = add nsw i32 %35, 1
  %37 = load ptr, ptr %3, align 8, !tbaa !4
  %38 = getelementptr inbounds nuw %struct.lua_State, ptr %37, i32 0, i32 4
  %39 = load ptr, ptr %38, align 8, !tbaa !11
  %40 = sext i32 %36 to i64
  %41 = getelementptr inbounds %struct.lua_TValue, ptr %39, i64 %40
  store ptr %41, ptr %38, align 8, !tbaa !11
  br label %42

42:                                               ; preds = %34, %25
  ret void
}